target datalayout = "e-m:e-p270:32:32-p271:32:32-p272:64:64-i64:64-i128:128-f80:128-n8:16:32:64-S128"
target triple = "x86_64-pc-linux-gnu"

%struct.mbedtls_cipher_info_t = type { i32, i32, i32, ptr, i32, i32, i32, ptr }
%struct.mbedtls_cipher_context_t = type { ptr, i32, i32, [16 x i8], i64, [16 x i8], i64, ptr }

; Function Attrs: mustprogress uwtable
define internal noundef i32 @_ZL27mbedtls_cipher_aead_encryptP24mbedtls_cipher_context_tPKhmS2_mS2_mPhPmS3_m(ptr noundef %0, ptr noundef %1, i64 noundef %2, ptr noundef %3, i64 noundef %4, ptr noundef %5, i64 noundef %6, ptr noundef %7, ptr noundef %8, ptr noundef %9, i64 noundef %10) #4 {
  %12 = alloca i32, align 4
  %13 = alloca ptr, align 8
  %14 = alloca ptr, align 8
  %15 = alloca i64, align 8
  %16 = alloca ptr, align 8
  %17 = alloca i64, align 8
  %18 = alloca ptr, align 8
  %19 = alloca i64, align 8
  %20 = alloca ptr, align 8
  %21 = alloca ptr, align 8
  %22 = alloca ptr, align 8
  %23 = alloca i64, align 8
  store ptr %0, ptr %13, align 8, !tbaa !36
  store ptr %1, ptr %14, align 8, !tbaa !20
  store i64 %2, ptr %15, align 8, !tbaa !52
  store ptr %3, ptr %16, align 8, !tbaa !20
  store i64 %4, ptr %17, align 8, !tbaa !52
  store ptr %5, ptr %18, align 8, !tbaa !20
  store i64 %6, ptr %19, align 8, !tbaa !52
  store ptr %7, ptr %20, align 8, !tbaa !20
  store ptr %8, ptr %21, align 8, !tbaa !56
  store ptr %9, ptr %22, align 8, !tbaa !20
  store i64 %10, ptr %23, align 8, !tbaa !52
  %24 = load ptr, ptr %13, align 8, !tbaa !36
  %25 = getelementptr inbounds nuw %struct.mbedtls_cipher_context_t, ptr %24, i32 0, i32 0
  %26 = load ptr, ptr %25, align 8, !tbaa !42
  %27 = getelementptr inbounds nuw %struct.mbedtls_cipher_info_t, ptr %26, i32 0, i32 1
  %28 = load i32, ptr %27, align 4, !tbaa !34
  %29 = icmp eq i32 6, %28
  br i1 %29, label %30, label %46

30:                                               ; preds = %11
  %31 = load i64, ptr %19, align 8, !tbaa !52
  %32 = load ptr, ptr %21, align 8, !tbaa !56
  store i64 %31, ptr %32, align 8, !tbaa !52
  %33 = load ptr, ptr %13, align 8, !tbaa !36
  %34 = getelementptr inbounds nuw %struct.mbedtls_cipher_context_t, ptr %33, i32 0, i32 7
  %35 = load ptr, ptr %34, align 8, !tbaa !38
  %36 = load i64, ptr %19, align 8, !tbaa !52
  %37 = load ptr, ptr %14, align 8, !tbaa !20
  %38 = load i64, ptr %15, align 8, !tbaa !52
  %39 = load ptr, ptr %16, align 8, !tbaa !20
  %40 = load i64, ptr %17, align 8, !tbaa !52
  %41 = load ptr, ptr %18, align 8, !tbaa !20
  %42 = load ptr, ptr %20, align 8, !tbaa !20
  %43 = load i64, ptr %23, align 8, !tbaa !52
  %44 = load ptr, ptr %22, align 8, !tbaa !20
  %45 = call i32 @mbedtls_gcm_crypt_and_tag(ptr noundef %35, i32 noundef 1, i64 noundef %36, ptr noundef %37, i64 noundef %38, ptr noundef %39, i64 noundef %40, ptr noundef %41, ptr noundef %42, i64 noundef %43, ptr noundef %44)
  store i32 %45, ptr %12, align 4
  br label %47

46:                                               ; preds = %11
  store i32 -24704, ptr %12, align 4
  br label %47

47:                                               ; preds = %46, %30
  %48 = load i32, ptr %12, align 4
  ret i32 %48
}

; Function Attrs: mustprogress uwtable
define hidden i32 @mbedtls_cipher_auth_encrypt_ext(ptr noundef %0, ptr noundef %1, i64 noundef %2, ptr noundef %3, i64 noundef %4, ptr noundef %5, i64 noundef %6, ptr noundef %7, i64 noundef %8, ptr noundef %9, i64 noundef %10) #4 {
  %12 = alloca i32, align 4
  %13 = alloca ptr, align 8
  %14 = alloca ptr, align 8
  %15 = alloca i64, align 8
  %16 = alloca ptr, align 8
  %17 = alloca i64, align 8
  %18 = alloca ptr, align 8
  %19 = alloca i64, align 8
  %20 = alloca ptr, align 8
  %21 = alloca i64, align 8
  %22 = alloca ptr, align 8
  %23 = alloca i64, align 8
  %24 = alloca i32, align 4
  store ptr %0, ptr %13, align 8, !tbaa !36
  store ptr %1, ptr %14, align 8, !tbaa !20
  store i64 %2, ptr %15, align 8, !tbaa !52
  store ptr %3, ptr %16, align 8, !tbaa !20
  store i64 %4, ptr %17, align 8, !tbaa !52
  store ptr %5, ptr %18, align 8, !tbaa !20
  store i64 %6, ptr %19, align 8, !tbaa !52
  store ptr %7, ptr %20, align 8, !tbaa !20
  store i64 %8, ptr %21, align 8, !tbaa !52
  store ptr %9, ptr %22, align 8, !tbaa !56
  store i64 %10, ptr %23, align 8, !tbaa !52
  br label %25

25:                                               ; preds = %11
  br label %26

26:                                               ; preds = %25
  br label %27

27:                                               ; preds = %26
  br label %28

28:                                               ; preds = %27
  br label %29

29:                                               ; preds = %28
  br label %30

30:                                               ; preds = %29
  br label %31

31:                                               ; preds = %30
  br label %32

32:                                               ; preds = %31
  br label %33

33:                                               ; preds = %32
  br label %34

34:                                               ; preds = %33
  br label %35

35:                                               ; preds = %34
  br label %36

36:                                               ; preds = %35
  %37 = load i64, ptr %21, align 8, !tbaa !52
  %38 = load i64, ptr %19, align 8, !tbaa !52
  %39 = load i64, ptr %23, align 8, !tbaa !52
  %40 = add i64 %38, %39
  %41 = icmp ult i64 %37, %40
  br i1 %41, label %42, label %43

42:                                               ; preds = %36
  store i32 -24832, ptr %12, align 4
  br label %63

43:                                               ; preds = %36
  call void @llvm.lifetime.start.p0(i64 4, ptr %24) #8
  %44 = load ptr, ptr %13, align 8, !tbaa !36
  %45 = load ptr, ptr %14, align 8, !tbaa !20
  %46 = load i64, ptr %15, align 8, !tbaa !52
  %47 = load ptr, ptr %16, align 8, !tbaa !20
  %48 = load i64, ptr %17, align 8, !tbaa !52
  %49 = load ptr, ptr %18, align 8, !tbaa !20
  %50 = load i64, ptr %19, align 8, !tbaa !52
  %51 = load ptr, ptr %20, align 8, !tbaa !20
  %52 = load ptr, ptr %22, align 8, !tbaa !56
  %53 = load ptr, ptr %20, align 8, !tbaa !20
  %54 = load i64, ptr %19, align 8, !tbaa !52
  %55 = getelementptr inbounds nuw i8, ptr %53, i64 %54
  %56 = load i64, ptr %23, align 8, !tbaa !52
  %57 = call noundef i32 @_ZL27mbedtls_cipher_aead_encryptP24mbedtls_cipher_context_tPKhmS2_mS2_mPhPmS3_m(ptr noundef %44, ptr noundef %45, i64 noundef %46, ptr noundef %47, i64 noundef %48, ptr noundef %49, i64 noundef %50, ptr noundef %51, ptr noundef %52, ptr noundef %55, i64 noundef %56)
  store i32 %57, ptr %24, align 4, !tbaa !3
  %58 = load i64, ptr %23, align 8, !tbaa !52
  %59 = load ptr, ptr %22, align 8, !tbaa !56
  %60 = load i64, ptr %59, align 8, !tbaa !52
  %61 = add i64 %60, %58
  store i64 %61, ptr %59, align 8, !tbaa !52
  %62 = load i32, ptr %24, align 4, !tbaa !3
  store i32 %62, ptr %12, align 4
  call void @llvm.lifetime.end.p0(i64 4, ptr %24) #8
  br label %63

63:                                               ; preds = %43, %42
  %64 = load i32, ptr %12, align 4
  ret i32 %64
}