; Function Attrs: mustprogress uwtable
define hidden i32 @mbedtls_cipher_auth_encrypt_ext(ptr noundef readonly captures(none) %0, ptr noundef %1, i64 noundef %2, ptr noundef %3, i64 noundef %4, ptr noundef %5, i64 noundef %6, ptr noundef %7, i64 noundef %8, ptr noundef captures(none) %9, i64 noundef %10) local_unnamed_addr #8 {
  %12 = add i64 %10, %6
  %13 = icmp ult i64 %8, %12
  br i1 %13, label %26, label %14

14:                                               ; preds = %11
  %15 = load ptr, ptr %0, align 8, !tbaa !33
  %16 = getelementptr inbounds nuw i8, ptr %15, i64 4
  %17 = load i32, ptr %16, align 4, !tbaa !27
  %18 = icmp eq i32 %17, 6
  br i1 %18, label %19, label %_ZL27mbedtls_cipher_aead_encryptP24mbedtls_cipher_context_tPKhmS2_mS2_mPhPmS3_m.exit

19:                                               ; preds = %14
  %20 = getelementptr inbounds nuw i8, ptr %7, i64 %6
  store i64 %6, ptr %9, align 8, !tbaa !43
  %21 = getelementptr inbounds nuw i8, ptr %0, i64 64
  %22 = load ptr, ptr %21, align 8, !tbaa !29
  %23 = tail call i32 @mbedtls_gcm_crypt_and_tag(ptr noundef %22, i32 noundef 1, i64 noundef %6, ptr noundef %1, i64 noundef %2, ptr noundef %3, i64 noundef %4, ptr noundef %5, ptr noundef %7, i64 noundef %10, ptr noundef %20)
  br label %_ZL27mbedtls_cipher_aead_encryptP24mbedtls_cipher_context_tPKhmS2_mS2_mPhPmS3_m.exit

_ZL27mbedtls_cipher_aead_encryptP24mbedtls_cipher_context_tPKhmS2_mS2_mPhPmS3_m.exit: ; preds = %14, %19
  %.0.i = phi i32 [ %23, %19 ], [ -24704, %14 ]
  %24 = load i64, ptr %9, align 8, !tbaa !43
  %25 = add i64 %24, %10
  store i64 %25, ptr %9, align 8, !tbaa !43
  br label %26

26:                                               ; preds = %11, %_ZL27mbedtls_cipher_aead_encryptP24mbedtls_cipher_context_tPKhmS2_mS2_mPhPmS3_m.exit
  %.0 = phi i32 [ %.0.i, %_ZL27mbedtls_cipher_aead_encryptP24mbedtls_cipher_context_tPKhmS2_mS2_mPhPmS3_m.exit ], [ -24832, %11 ]
  ret i32 %.0
}